; Function Attrs: null_pointer_is_valid sspstrong uwtable
define internal noundef zeroext i1 @dissect_wassp_heur(ptr noundef %0, ptr noundef %1, ptr noundef %2, ptr readnone captures(none) %3) #0 {
  %5 = tail call i32 @tvb_captured_length(ptr noundef %0)
  %6 = icmp ult i32 %5, 8
  br i1 %6, label %test_wassp.exit.thread, label %test_wassp.exit

test_wassp.exit:                                  ; preds = %4
  %7 = tail call zeroext i8 @tvb_get_uint8(ptr noundef %0, i32 noundef 0)
  %.not.i = icmp eq i8 %7, 3
  br i1 %.not.i, label %8, label %test_wassp.exit.thread

8:                                                ; preds = %test_wassp.exit
  tail call fastcc void @dissect_wassp(ptr noundef %0, ptr noundef %1, ptr noundef %2)
  br label %test_wassp.exit.thread

test_wassp.exit.thread:                           ; preds = %4, %test_wassp.exit, %8
  %.0.i6 = phi i1 [ false, %test_wassp.exit ], [ true, %8 ], [ false, %4 ]
  ret i1 %.0.i6
}